target datalayout = "e-m:e-p270:32:32-p271:32:32-p272:64:64-i64:64-i128:128-f80:128-n8:16:32:64-S128"
target triple = "x86_64-pc-linux-gnu"

%struct.pull_varnos_context = type { ptr, ptr, i32 }

; Function Attrs: nounwind uwtable
define dso_local ptr @pull_varnos_of_level(ptr noundef %0, ptr noundef %1, i32 noundef %2) #0 {
  %4 = alloca ptr, align 8
  %5 = alloca ptr, align 8
  %6 = alloca i32, align 4
  %7 = alloca %struct.pull_varnos_context, align 8
  store ptr %0, ptr %4, align 8
  store ptr %1, ptr %5, align 8
  store i32 %2, ptr %6, align 4
  call void @llvm.lifetime.start.p0(i64 24, ptr %7) #6
  %8 = getelementptr inbounds nuw %struct.pull_varnos_context, ptr %7, i32 0, i32 0
  store ptr null, ptr %8, align 8
  %9 = load ptr, ptr %4, align 8
  %10 = getelementptr inbounds nuw %struct.pull_varnos_context, ptr %7, i32 0, i32 1
  store ptr %9, ptr %10, align 8
  %11 = load i32, ptr %6, align 4
  %12 = getelementptr inbounds nuw %struct.pull_varnos_context, ptr %7, i32 0, i32 2
  store i32 %11, ptr %12, align 8
  %13 = load ptr, ptr %5, align 8
  %14 = call zeroext i1 @query_or_expression_tree_walker_impl(ptr noundef %13, ptr noundef @pull_varnos_walker, ptr noundef %7, i32 noundef 0)
  %15 = getelementptr inbounds nuw %struct.pull_varnos_context, ptr %7, i32 0, i32 0
  %16 = load ptr, ptr %15, align 8
  call void @llvm.lifetime.end.p0(i64 24, ptr %7) #6
  ret ptr %16
}