; Function Attrs: nounwind uwtable
define dso_local ptr @pull_varnos_of_level(ptr noundef %0, ptr noundef %1, i32 noundef %2) local_unnamed_addr #0 {
  %4 = alloca %struct.pull_varnos_context, align 8
  call void @llvm.lifetime.start.p0(i64 24, ptr nonnull %4) #6
  store ptr null, ptr %4, align 8
  %5 = getelementptr inbounds nuw i8, ptr %4, i64 8
  store ptr %0, ptr %5, align 8
  %6 = getelementptr inbounds nuw i8, ptr %4, i64 16
  store i32 %2, ptr %6, align 8
  %7 = call zeroext i1 @query_or_expression_tree_walker_impl(ptr noundef %1, ptr noundef nonnull @pull_varnos_walker, ptr noundef nonnull %4, i32 noundef 0) #6
  %8 = load ptr, ptr %4, align 8
  call void @llvm.lifetime.end.p0(i64 24, ptr nonnull %4) #6
  ret ptr %8
}